target datalayout = "e-m:e-p270:32:32-p271:32:32-p272:64:64-i64:64-i128:128-f80:128-n8:16:32:64-S128"
target triple = "x86_64-unknown-linux-gnu"

%struct.DisasContextBase = type { ptr, i64, i64, i32, i32, i32, i8, i8, i8, [2 x ptr] }
%struct.TranslationBlock = type { i64, i64, i32, i32, i16, i16, %struct.tb_tc, %struct.IntervalTreeNode, %struct.QemuSpin, [2 x i16], [2 x i16], [2 x i64], i64, [2 x i64], [2 x i64] }
%struct.tb_tc = type { ptr, i64 }
%struct.IntervalTreeNode = type { %struct.RBNode, i64, i64, i64 }
%struct.RBNode = type { i64, ptr, ptr }
%struct.QemuSpin = type { i32 }

@.str.2 = private unnamed_addr constant [102 x i8] c"/home/dtcxzyw/WorkSpace/Projects/compilers/llvm-opt-benchmark/bench/qemu/qemu/include/exec/exec-all.h\00", align 1
@__func__.tb_cflags = private unnamed_addr constant [10 x i8] c"tb_cflags\00", align 1

; Function Attrs: nounwind sspstrong uwtable
define internal i32 @tb_cflags(ptr noundef %tb) #0 {
entry:
  %tb.addr = alloca ptr, align 8
  %tmp = alloca i32, align 4
  %atomic-temp = alloca i32, align 4
  store ptr %tb, ptr %tb.addr, align 8
  br label %while.cond

while.cond:                                       ; preds = %do.end, %entry
  br i1 false, label %while.body, label %while.end

while.body:                                       ; preds = %while.cond
  br label %do.body

do.body:                                          ; preds = %while.body
  call void @g_assertion_message_expr(ptr noundef null, ptr noundef @.str.2, i32 noundef 465, ptr noundef @__func__.tb_cflags, ptr noundef null) #5
  unreachable

do.end:                                           ; No predecessors!
  br label %while.cond

while.end:                                        ; preds = %while.cond
  %0 = load ptr, ptr %tb.addr, align 8
  %cflags = getelementptr inbounds %struct.TranslationBlock, ptr %0, i32 0, i32 3
  %1 = load atomic i32, ptr %cflags monotonic, align 4
  store i32 %1, ptr %atomic-temp, align 4
  %2 = load i32, ptr %atomic-temp, align 4
  store i32 %2, ptr %tmp, align 4
  %3 = load i32, ptr %tmp, align 4
  ret i32 %3
}

; Function Attrs: nounwind sspstrong uwtable
define dso_local zeroext i1 @translator_use_goto_tb(ptr noundef %db, i64 noundef %dest) #0 {
entry:
  %retval = alloca i1, align 1
  %db.addr = alloca ptr, align 8
  %dest.addr = alloca i64, align 8
  store ptr %db, ptr %db.addr, align 8
  store i64 %dest, ptr %dest.addr, align 8
  %0 = load ptr, ptr %db.addr, align 8
  %tb = getelementptr inbounds %struct.DisasContextBase, ptr %0, i32 0, i32 0
  %1 = load ptr, ptr %tb, align 8
  %call = call i32 @tb_cflags(ptr noundef %1)
  %and = and i32 %call, 512
  %tobool = icmp ne i32 %and, 0
  br i1 %tobool, label %if.then, label %if.end

if.then:                                          ; preds = %entry
  store i1 false, ptr %retval, align 1
  br label %return

if.end:                                           ; preds = %entry
  %2 = load ptr, ptr %db.addr, align 8
  %pc_first = getelementptr inbounds %struct.DisasContextBase, ptr %2, i32 0, i32 1
  %3 = load i64, ptr %pc_first, align 8
  %4 = load i64, ptr %dest.addr, align 8
  %xor = xor i64 %3, %4
  %and1 = and i64 %xor, -4096
  %cmp = icmp eq i64 %and1, 0
  store i1 %cmp, ptr %retval, align 1
  br label %return

return:                                           ; preds = %if.end, %if.then
  %5 = load i1, ptr %retval, align 1
  ret i1 %5
}