; Function Attrs: mustprogress nofree norecurse nounwind sspstrong willreturn memory(readwrite, inaccessiblemem: none) uwtable
define dso_local zeroext i1 @translator_use_goto_tb(ptr noundef readonly captures(none) %db, i64 noundef %dest) local_unnamed_addr #1 {
entry:
  %0 = load ptr, ptr %db, align 8
  %cflags.i = getelementptr inbounds nuw i8, ptr %0, i64 20
  %1 = load atomic i32, ptr %cflags.i monotonic, align 4
  %and = and i32 %1, 512
  %tobool.not = icmp eq i32 %and, 0
  br i1 %tobool.not, label %if.end, label %return

if.end:                                           ; preds = %entry
  %pc_first = getelementptr inbounds nuw i8, ptr %db, i64 8
  %2 = load i64, ptr %pc_first, align 8
  %xor = xor i64 %2, %dest
  %cmp = icmp ult i64 %xor, 4096
  br label %return

return:                                           ; preds = %entry, %if.end
  %retval.0 = phi i1 [ %cmp, %if.end ], [ false, %entry ]
  ret i1 %retval.0
}